; Function Attrs: nofree nounwind null_pointer_is_valid sspstrong uwtable
define internal noundef zeroext i1 @new_page_text(ptr noundef readonly captures(none) %0) #8 {
  %2 = getelementptr inbounds nuw i8, ptr %0, i64 8
  %3 = load ptr, ptr %2, align 8
  %4 = getelementptr inbounds nuw i8, ptr %3, i64 8
  %5 = load ptr, ptr %4, align 8
  %fputc = tail call i32 @fputc(i32 12, ptr %5)
  %6 = load ptr, ptr %4, align 8
  %7 = tail call i32 @ferror(ptr noundef %6) #13
  %.not = icmp eq i32 %7, 0
  ret i1 %.not
}